target datalayout = "e-m:e-p270:32:32-p271:32:32-p272:64:64-i64:64-i128:128-f80:128-n8:16:32:64-S128"
target triple = "x86_64-unknown-linux-gnu"

%"class.icu_75::OlsonTimeZone" = type { %"class.icu_75::BasicTimeZone", i16, i16, i16, ptr, ptr, ptr, i16, ptr, ptr, ptr, double, i32, ptr, ptr, ptr, i16, ptr, ptr, i16, ptr, %"struct.icu_75::UInitOnce" }
%"class.icu_75::BasicTimeZone" = type { %"class.icu_75::TimeZone" }
%"class.icu_75::TimeZone" = type { %"class.icu_75::UObject", %"class.icu_75::UnicodeString" }
%"class.icu_75::UObject" = type { ptr }
%"class.icu_75::UnicodeString" = type { %"class.icu_75::Replaceable", %"union.icu_75::UnicodeString::StackBufferOrFields" }
%"class.icu_75::Replaceable" = type { %"class.icu_75::UObject" }
%"union.icu_75::UnicodeString::StackBufferOrFields" = type { %struct.anon.0, [32 x i8] }
%struct.anon.0 = type { i16, i32, i32, ptr }
%"struct.icu_75::UInitOnce" = type { %"struct.std::atomic", i32 }
%"struct.std::atomic" = type { %"struct.std::__atomic_base" }
%"struct.std::__atomic_base" = type { i32 }

@_ZTIN6icu_758TimeZoneE = external constant ptr
@_ZTIN6icu_7513OlsonTimeZoneE = constant { ptr, ptr, ptr } { ptr getelementptr inbounds (ptr, ptr @_ZTVN10__cxxabiv120__si_class_type_infoE, i64 2), ptr @_ZTSN6icu_7513OlsonTimeZoneE, ptr @_ZTIN6icu_7513BasicTimeZoneE }, align 8

; Function Attrs: mustprogress nounwind uwtable
define linkonce_odr noundef signext i16 @_ZNK6icu_7513OlsonTimeZone15transitionCountEv(ptr noundef nonnull align 8 dereferenceable(224) %this) #0 comdat align 2 {
entry:
  %this.addr = alloca ptr, align 8
  store ptr %this, ptr %this.addr, align 8
  %this1 = load ptr, ptr %this.addr, align 8
  %transitionCountPre32 = getelementptr inbounds %"class.icu_75::OlsonTimeZone", ptr %this1, i32 0, i32 1
  %0 = load i16, ptr %transitionCountPre32, align 8
  %conv = sext i16 %0 to i32
  %transitionCount32 = getelementptr inbounds %"class.icu_75::OlsonTimeZone", ptr %this1, i32 0, i32 2
  %1 = load i16, ptr %transitionCount32, align 2
  %conv2 = sext i16 %1 to i32
  %add = add nsw i32 %conv, %conv2
  %transitionCountPost32 = getelementptr inbounds %"class.icu_75::OlsonTimeZone", ptr %this1, i32 0, i32 3
  %2 = load i16, ptr %transitionCountPost32, align 4
  %conv3 = sext i16 %2 to i32
  %add4 = add nsw i32 %add, %conv3
  %conv5 = trunc i32 %add4 to i16
  ret i16 %conv5
}

; Function Attrs: mustprogress uwtable
define linkonce_odr noundef zeroext i1 @_ZNK6icu_758TimeZoneneERKS0_(ptr noundef nonnull align 8 dereferenceable(72) %this, ptr noundef nonnull align 8 dereferenceable(72) %that) #1 comdat align 2 {
entry:
  %this.addr = alloca ptr, align 8
  %that.addr = alloca ptr, align 8
  store ptr %this, ptr %this.addr, align 8
  store ptr %that, ptr %that.addr, align 8
  %this1 = load ptr, ptr %this.addr, align 8
  %0 = load ptr, ptr %that.addr, align 8
  %vtable = load ptr, ptr %this1, align 8
  %vfn = getelementptr inbounds ptr, ptr %vtable, i64 3
  %1 = load ptr, ptr %vfn, align 8
  %call = call noundef zeroext i1 %1(ptr noundef nonnull align 8 dereferenceable(72) %this1, ptr noundef nonnull align 8 dereferenceable(72) %0)
  %lnot = xor i1 %call, true
  ret i1 %lnot
}

; Function Attrs: mustprogress uwtable
define noundef signext i8 @_ZNK6icu_7513OlsonTimeZone12hasSameRulesERKNS_8TimeZoneE(ptr noundef nonnull align 8 dereferenceable(224) %this, ptr noundef nonnull align 8 dereferenceable(72) %other) unnamed_addr #1 align 2 {
entry:
  %retval = alloca i8, align 1
  %this.addr = alloca ptr, align 8
  %other.addr = alloca ptr, align 8
  %z = alloca ptr, align 8
  store ptr %this, ptr %this.addr, align 8
  store ptr %other, ptr %other.addr, align 8
  %this1 = load ptr, ptr %this.addr, align 8
  %0 = load ptr, ptr %other.addr, align 8
  %cmp = icmp eq ptr %this1, %0
  br i1 %cmp, label %if.then, label %if.end

if.then:                                          ; preds = %entry
  store i8 1, ptr %retval, align 1
  br label %return

if.end:                                           ; preds = %entry
  %1 = load ptr, ptr %other.addr, align 8
  %2 = icmp eq ptr %1, null
  br i1 %2, label %dynamic_cast.null, label %dynamic_cast.notnull

dynamic_cast.notnull:                             ; preds = %if.end
  %3 = call ptr @__dynamic_cast(ptr %1, ptr @_ZTIN6icu_758TimeZoneE, ptr @_ZTIN6icu_7513OlsonTimeZoneE, i64 0) #9
  br label %dynamic_cast.end

dynamic_cast.null:                                ; preds = %if.end
  br label %dynamic_cast.end

dynamic_cast.end:                                 ; preds = %dynamic_cast.null, %dynamic_cast.notnull
  %4 = phi ptr [ %3, %dynamic_cast.notnull ], [ null, %dynamic_cast.null ]
  store ptr %4, ptr %z, align 8
  %5 = load ptr, ptr %z, align 8
  %cmp2 = icmp eq ptr %5, null
  br i1 %cmp2, label %if.then3, label %if.end4

if.then3:                                         ; preds = %dynamic_cast.end
  store i8 0, ptr %retval, align 1
  br label %return

if.end4:                                          ; preds = %dynamic_cast.end
  %typeMapData = getelementptr inbounds %"class.icu_75::OlsonTimeZone", ptr %this1, i32 0, i32 9
  %6 = load ptr, ptr %typeMapData, align 8
  %7 = load ptr, ptr %z, align 8
  %typeMapData5 = getelementptr inbounds %"class.icu_75::OlsonTimeZone", ptr %7, i32 0, i32 9
  %8 = load ptr, ptr %typeMapData5, align 8
  %cmp6 = icmp eq ptr %6, %8
  br i1 %cmp6, label %if.then7, label %if.end8

if.then7:                                         ; preds = %if.end4
  store i8 1, ptr %retval, align 1
  br label %return

if.end8:                                          ; preds = %if.end4
  %finalZone = getelementptr inbounds %"class.icu_75::OlsonTimeZone", ptr %this1, i32 0, i32 10
  %9 = load ptr, ptr %finalZone, align 8
  %cmp9 = icmp eq ptr %9, null
  br i1 %cmp9, label %land.lhs.true, label %lor.lhs.false

land.lhs.true:                                    ; preds = %if.end8
  %10 = load ptr, ptr %z, align 8
  %finalZone10 = getelementptr inbounds %"class.icu_75::OlsonTimeZone", ptr %10, i32 0, i32 10
  %11 = load ptr, ptr %finalZone10, align 8
  %cmp11 = icmp ne ptr %11, null
  br i1 %cmp11, label %if.then26, label %lor.lhs.false

lor.lhs.false:                                    ; preds = %land.lhs.true, %if.end8
  %finalZone12 = getelementptr inbounds %"class.icu_75::OlsonTimeZone", ptr %this1, i32 0, i32 10
  %12 = load ptr, ptr %finalZone12, align 8
  %cmp13 = icmp ne ptr %12, null
  br i1 %cmp13, label %land.lhs.true14, label %lor.lhs.false17

land.lhs.true14:                                  ; preds = %lor.lhs.false
  %13 = load ptr, ptr %z, align 8
  %finalZone15 = getelementptr inbounds %"class.icu_75::OlsonTimeZone", ptr %13, i32 0, i32 10
  %14 = load ptr, ptr %finalZone15, align 8
  %cmp16 = icmp eq ptr %14, null
  br i1 %cmp16, label %if.then26, label %lor.lhs.false17

lor.lhs.false17:                                  ; preds = %land.lhs.true14, %lor.lhs.false
  %finalZone18 = getelementptr inbounds %"class.icu_75::OlsonTimeZone", ptr %this1, i32 0, i32 10
  %15 = load ptr, ptr %finalZone18, align 8
  %cmp19 = icmp ne ptr %15, null
  br i1 %cmp19, label %land.lhs.true20, label %if.end27

land.lhs.true20:                                  ; preds = %lor.lhs.false17
  %16 = load ptr, ptr %z, align 8
  %finalZone21 = getelementptr inbounds %"class.icu_75::OlsonTimeZone", ptr %16, i32 0, i32 10
  %17 = load ptr, ptr %finalZone21, align 8
  %cmp22 = icmp ne ptr %17, null
  br i1 %cmp22, label %land.lhs.true23, label %if.end27

land.lhs.true23:                                  ; preds = %land.lhs.true20
  %finalZone24 = getelementptr inbounds %"class.icu_75::OlsonTimeZone", ptr %this1, i32 0, i32 10
  %18 = load ptr, ptr %finalZone24, align 8
  %19 = load ptr, ptr %z, align 8
  %finalZone25 = getelementptr inbounds %"class.icu_75::OlsonTimeZone", ptr %19, i32 0, i32 10
  %20 = load ptr, ptr %finalZone25, align 8
  %call = call noundef zeroext i1 @_ZNK6icu_758TimeZoneneERKS0_(ptr noundef nonnull align 8 dereferenceable(72) %18, ptr noundef nonnull align 8 dereferenceable(72) %20)
  br i1 %call, label %if.then26, label %if.end27

if.then26:                                        ; preds = %land.lhs.true23, %land.lhs.true14, %land.lhs.true
  store i8 0, ptr %retval, align 1
  br label %return

if.end27:                                         ; preds = %land.lhs.true23, %land.lhs.true20, %lor.lhs.false17
  %finalZone28 = getelementptr inbounds %"class.icu_75::OlsonTimeZone", ptr %this1, i32 0, i32 10
  %21 = load ptr, ptr %finalZone28, align 8
  %cmp29 = icmp ne ptr %21, null
  br i1 %cmp29, label %if.then30, label %if.end38

if.then30:                                        ; preds = %if.end27
  %finalStartYear = getelementptr inbounds %"class.icu_75::OlsonTimeZone", ptr %this1, i32 0, i32 12
  %22 = load i32, ptr %finalStartYear, align 8
  %23 = load ptr, ptr %z, align 8
  %finalStartYear31 = getelementptr inbounds %"class.icu_75::OlsonTimeZone", ptr %23, i32 0, i32 12
  %24 = load i32, ptr %finalStartYear31, align 8
  %cmp32 = icmp ne i32 %22, %24
  br i1 %cmp32, label %if.then36, label %lor.lhs.false33

lor.lhs.false33:                                  ; preds = %if.then30
  %finalStartMillis = getelementptr inbounds %"class.icu_75::OlsonTimeZone", ptr %this1, i32 0, i32 11
  %25 = load double, ptr %finalStartMillis, align 8
  %26 = load ptr, ptr %z, align 8
  %finalStartMillis34 = getelementptr inbounds %"class.icu_75::OlsonTimeZone", ptr %26, i32 0, i32 11
  %27 = load double, ptr %finalStartMillis34, align 8
  %cmp35 = fcmp une double %25, %27
  br i1 %cmp35, label %if.then36, label %if.end37

if.then36:                                        ; preds = %lor.lhs.false33, %if.then30
  store i8 0, ptr %retval, align 1
  br label %return

if.end37:                                         ; preds = %lor.lhs.false33
  br label %if.end38

if.end38:                                         ; preds = %if.end37, %if.end27
  %typeCount = getelementptr inbounds %"class.icu_75::OlsonTimeZone", ptr %this1, i32 0, i32 7
  %28 = load i16, ptr %typeCount, align 8
  %conv = sext i16 %28 to i32
  %29 = load ptr, ptr %z, align 8
  %typeCount39 = getelementptr inbounds %"class.icu_75::OlsonTimeZone", ptr %29, i32 0, i32 7
  %30 = load i16, ptr %typeCount39, align 8
  %conv40 = sext i16 %30 to i32
  %cmp41 = icmp ne i32 %conv, %conv40
  br i1 %cmp41, label %if.then57, label %lor.lhs.false42

lor.lhs.false42:                                  ; preds = %if.end38
  %transitionCountPre32 = getelementptr inbounds %"class.icu_75::OlsonTimeZone", ptr %this1, i32 0, i32 1
  %31 = load i16, ptr %transitionCountPre32, align 8
  %conv43 = sext i16 %31 to i32
  %32 = load ptr, ptr %z, align 8
  %transitionCountPre3244 = getelementptr inbounds %"class.icu_75::OlsonTimeZone", ptr %32, i32 0, i32 1
  %33 = load i16, ptr %transitionCountPre3244, align 8
  %conv45 = sext i16 %33 to i32
  %cmp46 = icmp ne i32 %conv43, %conv45
  br i1 %cmp46, label %if.then57, label %lor.lhs.false47

lor.lhs.false47:                                  ; preds = %lor.lhs.false42
  %transitionCount32 = getelementptr inbounds %"class.icu_75::OlsonTimeZone", ptr %this1, i32 0, i32 2
  %34 = load i16, ptr %transitionCount32, align 2
  %conv48 = sext i16 %34 to i32
  %35 = load ptr, ptr %z, align 8
  %transitionCount3249 = getelementptr inbounds %"class.icu_75::OlsonTimeZone", ptr %35, i32 0, i32 2
  %36 = load i16, ptr %transitionCount3249, align 2
  %conv50 = sext i16 %36 to i32
  %cmp51 = icmp ne i32 %conv48, %conv50
  br i1 %cmp51, label %if.then57, label %lor.lhs.false52

lor.lhs.false52:                                  ; preds = %lor.lhs.false47
  %transitionCountPost32 = getelementptr inbounds %"class.icu_75::OlsonTimeZone", ptr %this1, i32 0, i32 3
  %37 = load i16, ptr %transitionCountPost32, align 4
  %conv53 = sext i16 %37 to i32
  %38 = load ptr, ptr %z, align 8
  %transitionCountPost3254 = getelementptr inbounds %"class.icu_75::OlsonTimeZone", ptr %38, i32 0, i32 3
  %39 = load i16, ptr %transitionCountPost3254, align 4
  %conv55 = sext i16 %39 to i32
  %cmp56 = icmp ne i32 %conv53, %conv55
  br i1 %cmp56, label %if.then57, label %if.end58

if.then57:                                        ; preds = %lor.lhs.false52, %lor.lhs.false47, %lor.lhs.false42, %if.end38
  store i8 0, ptr %retval, align 1
  br label %return

if.end58:                                         ; preds = %lor.lhs.false52
  %transitionTimesPre32 = getelementptr inbounds %"class.icu_75::OlsonTimeZone", ptr %this1, i32 0, i32 4
  %40 = load ptr, ptr %transitionTimesPre32, align 8
  %41 = load ptr, ptr %z, align 8
  %transitionTimesPre3259 = getelementptr inbounds %"class.icu_75::OlsonTimeZone", ptr %41, i32 0, i32 4
  %42 = load ptr, ptr %transitionTimesPre3259, align 8
  %transitionCountPre3260 = getelementptr inbounds %"class.icu_75::OlsonTimeZone", ptr %this1, i32 0, i32 1
  %43 = load i16, ptr %transitionCountPre3260, align 8
  %conv61 = sext i16 %43 to i64
  %mul = mul i64 4, %conv61
  %shl = shl i64 %mul, 1
  %conv62 = trunc i64 %shl to i32
  %call63 = call noundef signext i8 @_ZL10arrayEqualPKvS0_i(ptr noundef %40, ptr noundef %42, i32 noundef %conv62)
  %tobool = icmp ne i8 %call63, 0
  br i1 %tobool, label %land.lhs.true64, label %land.end

land.lhs.true64:                                  ; preds = %if.end58
  %transitionTimes32 = getelementptr inbounds %"class.icu_75::OlsonTimeZone", ptr %this1, i32 0, i32 5
  %44 = load ptr, ptr %transitionTimes32, align 8
  %45 = load ptr, ptr %z, align 8
  %transitionTimes3265 = getelementptr inbounds %"class.icu_75::OlsonTimeZone", ptr %45, i32 0, i32 5
  %46 = load ptr, ptr %transitionTimes3265, align 8
  %transitionCount3266 = getelementptr inbounds %"class.icu_75::OlsonTimeZone", ptr %this1, i32 0, i32 2
  %47 = load i16, ptr %transitionCount3266, align 2
  %conv67 = sext i16 %47 to i64
  %mul68 = mul i64 4, %conv67
  %conv69 = trunc i64 %mul68 to i32
  %call70 = call noundef signext i8 @_ZL10arrayEqualPKvS0_i(ptr noundef %44, ptr noundef %46, i32 noundef %conv69)
  %tobool71 = icmp ne i8 %call70, 0
  br i1 %tobool71, label %land.lhs.true72, label %land.end

land.lhs.true72:                                  ; preds = %land.lhs.true64
  %transitionTimesPost32 = getelementptr inbounds %"class.icu_75::OlsonTimeZone", ptr %this1, i32 0, i32 6
  %48 = load ptr, ptr %transitionTimesPost32, align 8
  %49 = load ptr, ptr %z, align 8
  %transitionTimesPost3273 = getelementptr inbounds %"class.icu_75::OlsonTimeZone", ptr %49, i32 0, i32 6
  %50 = load ptr, ptr %transitionTimesPost3273, align 8
  %transitionCountPost3274 = getelementptr inbounds %"class.icu_75::OlsonTimeZone", ptr %this1, i32 0, i32 3
  %51 = load i16, ptr %transitionCountPost3274, align 4
  %conv75 = sext i16 %51 to i64
  %mul76 = mul i64 4, %conv75
  %shl77 = shl i64 %mul76, 1
  %conv78 = trunc i64 %shl77 to i32
  %call79 = call noundef signext i8 @_ZL10arrayEqualPKvS0_i(ptr noundef %48, ptr noundef %50, i32 noundef %conv78)
  %tobool80 = icmp ne i8 %call79, 0
  br i1 %tobool80, label %land.lhs.true81, label %land.end

land.lhs.true81:                                  ; preds = %land.lhs.true72
  %typeOffsets = getelementptr inbounds %"class.icu_75::OlsonTimeZone", ptr %this1, i32 0, i32 8
  %52 = load ptr, ptr %typeOffsets, align 8
  %53 = load ptr, ptr %z, align 8
  %typeOffsets82 = getelementptr inbounds %"class.icu_75::OlsonTimeZone", ptr %53, i32 0, i32 8
  %54 = load ptr, ptr %typeOffsets82, align 8
  %typeCount83 = getelementptr inbounds %"class.icu_75::OlsonTimeZone", ptr %this1, i32 0, i32 7
  %55 = load i16, ptr %typeCount83, align 8
  %conv84 = sext i16 %55 to i64
  %mul85 = mul i64 4, %conv84
  %shl86 = shl i64 %mul85, 1
  %conv87 = trunc i64 %shl86 to i32
  %call88 = call noundef signext i8 @_ZL10arrayEqualPKvS0_i(ptr noundef %52, ptr noundef %54, i32 noundef %conv87)
  %tobool89 = icmp ne i8 %call88, 0
  br i1 %tobool89, label %land.rhs, label %land.end

land.rhs:                                         ; preds = %land.lhs.true81
  %typeMapData90 = getelementptr inbounds %"class.icu_75::OlsonTimeZone", ptr %this1, i32 0, i32 9
  %56 = load ptr, ptr %typeMapData90, align 8
  %57 = load ptr, ptr %z, align 8
  %typeMapData91 = getelementptr inbounds %"class.icu_75::OlsonTimeZone", ptr %57, i32 0, i32 9
  %58 = load ptr, ptr %typeMapData91, align 8
  %call92 = call noundef signext i16 @_ZNK6icu_7513OlsonTimeZone15transitionCountEv(ptr noundef nonnull align 8 dereferenceable(224) %this1)
  %conv93 = sext i16 %call92 to i64
  %mul94 = mul i64 1, %conv93
  %conv95 = trunc i64 %mul94 to i32
  %call96 = call noundef signext i8 @_ZL10arrayEqualPKvS0_i(ptr noundef %56, ptr noundef %58, i32 noundef %conv95)
  %tobool97 = icmp ne i8 %call96, 0
  br label %land.end

land.end:                                         ; preds = %land.rhs, %land.lhs.true81, %land.lhs.true72, %land.lhs.true64, %if.end58
  %59 = phi i1 [ false, %land.lhs.true81 ], [ false, %land.lhs.true72 ], [ false, %land.lhs.true64 ], [ false, %if.end58 ], [ %tobool97, %land.rhs ]
  %conv98 = zext i1 %59 to i8
  store i8 %conv98, ptr %retval, align 1
  br label %return

return:                                           ; preds = %land.end, %if.then57, %if.then36, %if.then26, %if.then7, %if.then3, %if.then
  %60 = load i8, ptr %retval, align 1
  ret i8 %60
}