; Function Attrs: mustprogress uwtable
define noundef signext i8 @_ZNK6icu_7513OlsonTimeZone12hasSameRulesERKNS_8TimeZoneE(ptr noundef nonnull readonly align 8 dereferenceable(224) %this, ptr noundef nonnull readonly align 8 dereferenceable(72) %other) unnamed_addr #2 align 2 {
entry:
  %cmp = icmp eq ptr %this, %other
  br i1 %cmp, label %return, label %dynamic_cast.notnull

dynamic_cast.notnull:                             ; preds = %entry
  %0 = tail call ptr @__dynamic_cast(ptr nonnull %other, ptr nonnull @_ZTIN6icu_758TimeZoneE, ptr nonnull @_ZTIN6icu_7513OlsonTimeZoneE, i64 0) #16
  %cmp2 = icmp eq ptr %0, null
  br i1 %cmp2, label %return, label %if.end4

if.end4:                                          ; preds = %dynamic_cast.notnull
  %typeMapData = getelementptr inbounds i8, ptr %this, i64 120
  %1 = load ptr, ptr %typeMapData, align 8
  %typeMapData5 = getelementptr inbounds i8, ptr %0, i64 120
  %2 = load ptr, ptr %typeMapData5, align 8
  %cmp6 = icmp eq ptr %1, %2
  br i1 %cmp6, label %return, label %if.end8

if.end8:                                          ; preds = %if.end4
  %finalZone = getelementptr inbounds i8, ptr %this, i64 128
  %3 = load ptr, ptr %finalZone, align 8
  %cmp9 = icmp eq ptr %3, null
  %finalZone10 = getelementptr inbounds i8, ptr %0, i64 128
  %4 = load ptr, ptr %finalZone10, align 8
  %cmp11.not = icmp eq ptr %4, null
  br i1 %cmp9, label %land.lhs.true, label %land.lhs.true14

land.lhs.true:                                    ; preds = %if.end8
  br i1 %cmp11.not, label %if.end38, label %return

land.lhs.true14:                                  ; preds = %if.end8
  br i1 %cmp11.not, label %return, label %land.lhs.true23

land.lhs.true23:                                  ; preds = %land.lhs.true14
  %vtable.i = load ptr, ptr %3, align 8
  %vfn.i = getelementptr inbounds i8, ptr %vtable.i, i64 24
  %5 = load ptr, ptr %vfn.i, align 8
  %call.i = tail call noundef zeroext i1 %5(ptr noundef nonnull align 8 dereferenceable(72) %3, ptr noundef nonnull align 8 dereferenceable(72) %4)
  br i1 %call.i, label %if.end27, label %return

if.end27:                                         ; preds = %land.lhs.true23
  %.pre = load ptr, ptr %finalZone, align 8
  %6 = icmp eq ptr %.pre, null
  br i1 %6, label %if.end38, label %if.then30

if.then30:                                        ; preds = %if.end27
  %finalStartYear = getelementptr inbounds i8, ptr %this, i64 144
  %7 = load i32, ptr %finalStartYear, align 8
  %finalStartYear31 = getelementptr inbounds i8, ptr %0, i64 144
  %8 = load i32, ptr %finalStartYear31, align 8
  %cmp32.not = icmp eq i32 %7, %8
  br i1 %cmp32.not, label %lor.lhs.false33, label %return

lor.lhs.false33:                                  ; preds = %if.then30
  %finalStartMillis = getelementptr inbounds i8, ptr %this, i64 136
  %9 = load double, ptr %finalStartMillis, align 8
  %finalStartMillis34 = getelementptr inbounds i8, ptr %0, i64 136
  %10 = load double, ptr %finalStartMillis34, align 8
  %cmp35 = fcmp une double %9, %10
  br i1 %cmp35, label %return, label %if.end38

if.end38:                                         ; preds = %land.lhs.true, %lor.lhs.false33, %if.end27
  %typeCount = getelementptr inbounds i8, ptr %this, i64 104
  %11 = load i16, ptr %typeCount, align 8
  %typeCount39 = getelementptr inbounds i8, ptr %0, i64 104
  %12 = load i16, ptr %typeCount39, align 8
  %cmp41.not = icmp eq i16 %11, %12
  br i1 %cmp41.not, label %lor.lhs.false42, label %return

lor.lhs.false42:                                  ; preds = %if.end38
  %transitionCountPre32 = getelementptr inbounds i8, ptr %this, i64 72
  %13 = load i16, ptr %transitionCountPre32, align 8
  %transitionCountPre3244 = getelementptr inbounds i8, ptr %0, i64 72
  %14 = load i16, ptr %transitionCountPre3244, align 8
  %cmp46.not = icmp eq i16 %13, %14
  br i1 %cmp46.not, label %lor.lhs.false47, label %return

lor.lhs.false47:                                  ; preds = %lor.lhs.false42
  %transitionCount32 = getelementptr inbounds i8, ptr %this, i64 74
  %15 = load i16, ptr %transitionCount32, align 2
  %transitionCount3249 = getelementptr inbounds i8, ptr %0, i64 74
  %16 = load i16, ptr %transitionCount3249, align 2
  %cmp51.not = icmp eq i16 %15, %16
  br i1 %cmp51.not, label %lor.lhs.false52, label %return

lor.lhs.false52:                                  ; preds = %lor.lhs.false47
  %transitionCountPost32 = getelementptr inbounds i8, ptr %this, i64 76
  %17 = load i16, ptr %transitionCountPost32, align 4
  %transitionCountPost3254 = getelementptr inbounds i8, ptr %0, i64 76
  %18 = load i16, ptr %transitionCountPost3254, align 4
  %cmp56.not = icmp eq i16 %17, %18
  br i1 %cmp56.not, label %if.end58, label %return

if.end58:                                         ; preds = %lor.lhs.false52
  %transitionTimesPre32 = getelementptr inbounds i8, ptr %this, i64 80
  %19 = load ptr, ptr %transitionTimesPre32, align 8
  %transitionTimesPre3259 = getelementptr inbounds i8, ptr %0, i64 80
  %20 = load ptr, ptr %transitionTimesPre3259, align 8
  %conv61 = sext i16 %13 to i32
  %mul = shl nsw i32 %conv61, 3
  %call63 = tail call fastcc noundef signext i8 @_ZL10arrayEqualPKvS0_i(ptr noundef %19, ptr noundef %20, i32 noundef %mul), !range !9
  %tobool.not = icmp eq i8 %call63, 0
  br i1 %tobool.not, label %return, label %land.lhs.true64

land.lhs.true64:                                  ; preds = %if.end58
  %transitionTimes32 = getelementptr inbounds i8, ptr %this, i64 88
  %21 = load ptr, ptr %transitionTimes32, align 8
  %transitionTimes3265 = getelementptr inbounds i8, ptr %0, i64 88
  %22 = load ptr, ptr %transitionTimes3265, align 8
  %conv67 = sext i16 %15 to i32
  %mul68 = shl nsw i32 %conv67, 2
  %call70 = tail call fastcc noundef signext i8 @_ZL10arrayEqualPKvS0_i(ptr noundef %21, ptr noundef %22, i32 noundef %mul68), !range !9
  %tobool71.not = icmp eq i8 %call70, 0
  br i1 %tobool71.not, label %return, label %land.lhs.true72

land.lhs.true72:                                  ; preds = %land.lhs.true64
  %transitionTimesPost32 = getelementptr inbounds i8, ptr %this, i64 96
  %23 = load ptr, ptr %transitionTimesPost32, align 8
  %transitionTimesPost3273 = getelementptr inbounds i8, ptr %0, i64 96
  %24 = load ptr, ptr %transitionTimesPost3273, align 8
  %conv75 = sext i16 %17 to i32
  %mul76 = shl nsw i32 %conv75, 3
  %call79 = tail call fastcc noundef signext i8 @_ZL10arrayEqualPKvS0_i(ptr noundef %23, ptr noundef %24, i32 noundef %mul76), !range !9
  %tobool80.not = icmp eq i8 %call79, 0
  br i1 %tobool80.not, label %return, label %land.lhs.true81

land.lhs.true81:                                  ; preds = %land.lhs.true72
  %typeOffsets = getelementptr inbounds i8, ptr %this, i64 112
  %25 = load ptr, ptr %typeOffsets, align 8
  %typeOffsets82 = getelementptr inbounds i8, ptr %0, i64 112
  %26 = load ptr, ptr %typeOffsets82, align 8
  %conv84 = sext i16 %11 to i32
  %mul85 = shl nsw i32 %conv84, 3
  %call88 = tail call fastcc noundef signext i8 @_ZL10arrayEqualPKvS0_i(ptr noundef %25, ptr noundef %26, i32 noundef %mul85), !range !9
  %tobool89.not = icmp eq i8 %call88, 0
  br i1 %tobool89.not, label %return, label %land.rhs

land.rhs:                                         ; preds = %land.lhs.true81
  %27 = load ptr, ptr %typeMapData, align 8
  %28 = load ptr, ptr %typeMapData5, align 8
  %add.i = add i16 %15, %13
  %add4.i = add i16 %add.i, %17
  %conv95 = sext i16 %add4.i to i32
  %call96 = tail call fastcc noundef signext i8 @_ZL10arrayEqualPKvS0_i(ptr noundef %27, ptr noundef %28, i32 noundef %conv95), !range !9
  br label %return

return:                                           ; preds = %if.end58, %land.lhs.true64, %land.lhs.true72, %land.lhs.true81, %land.rhs, %if.end38, %lor.lhs.false42, %lor.lhs.false47, %lor.lhs.false52, %if.then30, %lor.lhs.false33, %land.lhs.true, %land.lhs.true14, %land.lhs.true23, %if.end4, %dynamic_cast.notnull, %entry
  %retval.0 = phi i8 [ 1, %entry ], [ 0, %dynamic_cast.notnull ], [ 1, %if.end4 ], [ 0, %land.lhs.true23 ], [ 0, %land.lhs.true14 ], [ 0, %land.lhs.true ], [ 0, %lor.lhs.false33 ], [ 0, %if.then30 ], [ 0, %lor.lhs.false52 ], [ 0, %lor.lhs.false47 ], [ 0, %lor.lhs.false42 ], [ 0, %if.end38 ], [ 0, %land.lhs.true81 ], [ 0, %land.lhs.true72 ], [ 0, %land.lhs.true64 ], [ 0, %if.end58 ], [ %call96, %land.rhs ]
  ret i8 %retval.0
}